; Function Attrs: mustprogress uwtable
define noundef zeroext i1 @_ZNK4YAML6ParsercvbEv(ptr nocapture noundef nonnull readonly align 8 dereferenceable(16) %this) local_unnamed_addr #5 align 2 {
entry:
  %0 = load ptr, ptr %this, align 8
  %cmp.i.not = icmp eq ptr %0, null
  br i1 %cmp.i.not, label %land.end, label %land.rhs

land.rhs:                                         ; preds = %entry
  %call4 = tail call noundef zeroext i1 @_ZN4YAML7Scanner5emptyEv(ptr noundef nonnull align 8 dereferenceable(480) %0)
  %lnot = xor i1 %call4, true
  br label %land.end

land.end:                                         ; preds = %land.rhs, %entry
  %1 = phi i1 [ false, %entry ], [ %lnot, %land.rhs ]
  ret i1 %1
}